target datalayout = "e-m:e-p270:32:32-p271:32:32-p272:64:64-i64:64-i128:128-f80:128-n8:16:32:64-S128"
target triple = "x86_64-pc-linux-gnu"

%struct.lean_object = type { i32, i32 }
%struct.lean_ctor_object = type { %struct.lean_object, [0 x ptr] }

; Function Attrs: inlinehint nounwind uwtable
define internal ptr @lean_to_ctor(ptr noundef %0) #0 {
  %2 = alloca ptr, align 8
  store ptr %0, ptr %2, align 8, !tbaa !4
  %3 = load ptr, ptr %2, align 8, !tbaa !4
  ret ptr %3
}

; Function Attrs: inlinehint nounwind uwtable
define internal ptr @lean_ctor_obj_cptr(ptr noundef %0) #0 {
  %2 = alloca ptr, align 8
  store ptr %0, ptr %2, align 8, !tbaa !4
  %3 = load ptr, ptr %2, align 8, !tbaa !4
  %4 = call ptr @lean_to_ctor(ptr noundef %3)
  %5 = getelementptr inbounds nuw %struct.lean_ctor_object, ptr %4, i32 0, i32 1
  %6 = getelementptr inbounds [0 x ptr], ptr %5, i64 0, i64 0
  ret ptr %6
}

; Function Attrs: inlinehint nounwind uwtable
define internal zeroext i8 @lean_ptr_tag(ptr noundef %0) #0 {
  %2 = alloca ptr, align 8
  store ptr %0, ptr %2, align 8, !tbaa !4
  %3 = load ptr, ptr %2, align 8, !tbaa !4
  %4 = getelementptr inbounds nuw %struct.lean_object, ptr %3, i32 0, i32 1
  %5 = load i32, ptr %4, align 4
  %6 = lshr i32 %5, 24
  %7 = trunc i32 %6 to i8
  ret i8 %7
}

; Function Attrs: inlinehint nounwind uwtable
define internal i64 @lean_unbox(ptr noundef %0) #0 {
  %2 = alloca ptr, align 8
  store ptr %0, ptr %2, align 8, !tbaa !4
  %3 = load ptr, ptr %2, align 8, !tbaa !4
  %4 = ptrtoint ptr %3 to i64
  %5 = lshr i64 %4, 1
  ret i64 %5
}

; Function Attrs: alwaysinline nounwind uwtable
define internal zeroext i1 @lean_is_scalar(ptr noundef %0) #1 {
  %2 = alloca ptr, align 8
  store ptr %0, ptr %2, align 8, !tbaa !4
  %3 = load ptr, ptr %2, align 8, !tbaa !4
  %4 = ptrtoint ptr %3 to i64
  %5 = and i64 %4, 1
  %6 = icmp eq i64 %5, 1
  ret i1 %6
}

; Function Attrs: inlinehint nounwind uwtable
define internal ptr @lean_ctor_get(ptr noundef %0, i32 noundef %1) #0 {
  %3 = alloca ptr, align 8
  %4 = alloca i32, align 4
  store ptr %0, ptr %3, align 8, !tbaa !4
  store i32 %1, ptr %4, align 4, !tbaa !13
  %5 = load ptr, ptr %3, align 8, !tbaa !4
  %6 = call ptr @lean_ctor_obj_cptr(ptr noundef %5)
  %7 = load i32, ptr %4, align 4, !tbaa !13
  %8 = zext i32 %7 to i64
  %9 = getelementptr inbounds nuw ptr, ptr %6, i64 %8
  %10 = load ptr, ptr %9, align 8, !tbaa !4
  ret ptr %10
}

; Function Attrs: inlinehint nounwind uwtable
define internal i32 @lean_obj_tag(ptr noundef %0) #0 {
  %2 = alloca i32, align 4
  %3 = alloca ptr, align 8
  store ptr %0, ptr %3, align 8, !tbaa !4
  %4 = load ptr, ptr %3, align 8, !tbaa !4
  %5 = call zeroext i1 @lean_is_scalar(ptr noundef %4)
  br i1 %5, label %6, label %10

6:                                                ; preds = %1
  %7 = load ptr, ptr %3, align 8, !tbaa !4
  %8 = call i64 @lean_unbox(ptr noundef %7)
  %9 = trunc i64 %8 to i32
  store i32 %9, ptr %2, align 4
  br label %14

10:                                               ; preds = %1
  %11 = load ptr, ptr %3, align 8, !tbaa !4
  %12 = call zeroext i8 @lean_ptr_tag(ptr noundef %11)
  %13 = zext i8 %12 to i32
  store i32 %13, ptr %2, align 4
  br label %14

14:                                               ; preds = %10, %6
  %15 = load i32, ptr %2, align 4
  ret i32 %15
}

; Function Attrs: nounwind uwtable
define zeroext i8 @l_Lean_Expr_hasAnyFVar_visit___at_Lean_Elab_WF_checkCodomains___spec__3(ptr noundef %0, ptr noundef %1) #2 {
  %3 = alloca i8, align 1
  %4 = alloca ptr, align 8
  %5 = alloca ptr, align 8
  %6 = alloca i8, align 1
  %7 = alloca i8, align 1
  %8 = alloca i32, align 4
  %9 = alloca ptr, align 8
  %10 = alloca i8, align 1
  %11 = alloca ptr, align 8
  %12 = alloca ptr, align 8
  %13 = alloca i8, align 1
  %14 = alloca i8, align 1
  %15 = alloca ptr, align 8
  %16 = alloca ptr, align 8
  %17 = alloca i8, align 1
  %18 = alloca i8, align 1
  %19 = alloca ptr, align 8
  %20 = alloca ptr, align 8
  %21 = alloca i8, align 1
  %22 = alloca i8, align 1
  %23 = alloca ptr, align 8
  %24 = alloca ptr, align 8
  %25 = alloca ptr, align 8
  %26 = alloca i8, align 1
  %27 = alloca i8, align 1
  %28 = alloca i8, align 1
  %29 = alloca i8, align 1
  %30 = alloca ptr, align 8
  %31 = alloca ptr, align 8
  %32 = alloca i8, align 1
  store ptr %0, ptr %4, align 8, !tbaa !4
  store ptr %1, ptr %5, align 8, !tbaa !4
  br label %33

33:                                               ; preds = %137, %2
  call void @llvm.lifetime.start.p0(i64 1, ptr %6) #7
  %34 = load ptr, ptr %5, align 8, !tbaa !4
  %35 = call zeroext i8 @l_Lean_Expr_hasFVar(ptr noundef %34)
  store i8 %35, ptr %6, align 1, !tbaa !12
  %36 = load i8, ptr %6, align 1, !tbaa !12
  %37 = zext i8 %36 to i32
  %38 = icmp eq i32 %37, 0
  br i1 %38, label %39, label %41

39:                                               ; preds = %33
  call void @llvm.lifetime.start.p0(i64 1, ptr %7) #7
  store i8 0, ptr %7, align 1, !tbaa !12
  %40 = load i8, ptr %7, align 1, !tbaa !12
  store i8 %40, ptr %3, align 1
  store i32 1, ptr %8, align 4
  call void @llvm.lifetime.end.p0(i64 1, ptr %7) #7
  br label %137

41:                                               ; preds = %33
  %42 = load ptr, ptr %5, align 8, !tbaa !4
  %43 = call i32 @lean_obj_tag(ptr noundef %42)
  switch i32 %43, label %135 [
    i32 1, label %44
    i32 5, label %51
    i32 6, label %67
    i32 7, label %83
    i32 8, label %99
    i32 10, label %127
    i32 11, label %131
  ]

44:                                               ; preds = %41
  call void @llvm.lifetime.start.p0(i64 8, ptr %9) #7
  call void @llvm.lifetime.start.p0(i64 1, ptr %10) #7
  %45 = load ptr, ptr %5, align 8, !tbaa !4
  %46 = call ptr @lean_ctor_get(ptr noundef %45, i32 noundef 0)
  store ptr %46, ptr %9, align 8, !tbaa !4
  %47 = load ptr, ptr %4, align 8, !tbaa !4
  %48 = load ptr, ptr %9, align 8, !tbaa !4
  %49 = call zeroext i8 @l_Array_contains___at___private_Lean_Class_0__Lean_checkOutParam___spec__1(ptr noundef %47, ptr noundef %48)
  store i8 %49, ptr %10, align 1, !tbaa !12
  %50 = load i8, ptr %10, align 1, !tbaa !12
  store i8 %50, ptr %3, align 1
  store i32 1, ptr %8, align 4
  call void @llvm.lifetime.end.p0(i64 1, ptr %10) #7
  call void @llvm.lifetime.end.p0(i64 8, ptr %9) #7
  br label %137

51:                                               ; preds = %41
  call void @llvm.lifetime.start.p0(i64 8, ptr %11) #7
  call void @llvm.lifetime.start.p0(i64 8, ptr %12) #7
  call void @llvm.lifetime.start.p0(i64 1, ptr %13) #7
  %52 = load ptr, ptr %5, align 8, !tbaa !4
  %53 = call ptr @lean_ctor_get(ptr noundef %52, i32 noundef 0)
  store ptr %53, ptr %11, align 8, !tbaa !4
  %54 = load ptr, ptr %5, align 8, !tbaa !4
  %55 = call ptr @lean_ctor_get(ptr noundef %54, i32 noundef 1)
  store ptr %55, ptr %12, align 8, !tbaa !4
  %56 = load ptr, ptr %4, align 8, !tbaa !4
  %57 = load ptr, ptr %11, align 8, !tbaa !4
  %58 = call zeroext i8 @l_Lean_Expr_hasAnyFVar_visit___at_Lean_Elab_WF_checkCodomains___spec__3(ptr noundef %56, ptr noundef %57)
  store i8 %58, ptr %13, align 1, !tbaa !12
  %59 = load i8, ptr %13, align 1, !tbaa !12
  %60 = zext i8 %59 to i32
  %61 = icmp eq i32 %60, 0
  br i1 %61, label %62, label %64

62:                                               ; preds = %51
  %63 = load ptr, ptr %12, align 8, !tbaa !4
  store ptr %63, ptr %5, align 8, !tbaa !4
  store i32 2, ptr %8, align 4
  br label %66

64:                                               ; preds = %51
  call void @llvm.lifetime.start.p0(i64 1, ptr %14) #7
  store i8 1, ptr %14, align 1, !tbaa !12
  %65 = load i8, ptr %14, align 1, !tbaa !12
  store i8 %65, ptr %3, align 1
  store i32 1, ptr %8, align 4
  call void @llvm.lifetime.end.p0(i64 1, ptr %14) #7
  br label %66

66:                                               ; preds = %64, %62
  call void @llvm.lifetime.end.p0(i64 1, ptr %13) #7
  call void @llvm.lifetime.end.p0(i64 8, ptr %12) #7
  call void @llvm.lifetime.end.p0(i64 8, ptr %11) #7
  br label %137

67:                                               ; preds = %41
  call void @llvm.lifetime.start.p0(i64 8, ptr %15) #7
  call void @llvm.lifetime.start.p0(i64 8, ptr %16) #7
  call void @llvm.lifetime.start.p0(i64 1, ptr %17) #7
  %68 = load ptr, ptr %5, align 8, !tbaa !4
  %69 = call ptr @lean_ctor_get(ptr noundef %68, i32 noundef 1)
  store ptr %69, ptr %15, align 8, !tbaa !4
  %70 = load ptr, ptr %5, align 8, !tbaa !4
  %71 = call ptr @lean_ctor_get(ptr noundef %70, i32 noundef 2)
  store ptr %71, ptr %16, align 8, !tbaa !4
  %72 = load ptr, ptr %4, align 8, !tbaa !4
  %73 = load ptr, ptr %15, align 8, !tbaa !4
  %74 = call zeroext i8 @l_Lean_Expr_hasAnyFVar_visit___at_Lean_Elab_WF_checkCodomains___spec__3(ptr noundef %72, ptr noundef %73)
  store i8 %74, ptr %17, align 1, !tbaa !12
  %75 = load i8, ptr %17, align 1, !tbaa !12
  %76 = zext i8 %75 to i32
  %77 = icmp eq i32 %76, 0
  br i1 %77, label %78, label %80

78:                                               ; preds = %67
  %79 = load ptr, ptr %16, align 8, !tbaa !4
  store ptr %79, ptr %5, align 8, !tbaa !4
  store i32 2, ptr %8, align 4
  br label %82

80:                                               ; preds = %67
  call void @llvm.lifetime.start.p0(i64 1, ptr %18) #7
  store i8 1, ptr %18, align 1, !tbaa !12
  %81 = load i8, ptr %18, align 1, !tbaa !12
  store i8 %81, ptr %3, align 1
  store i32 1, ptr %8, align 4
  call void @llvm.lifetime.end.p0(i64 1, ptr %18) #7
  br label %82

82:                                               ; preds = %80, %78
  call void @llvm.lifetime.end.p0(i64 1, ptr %17) #7
  call void @llvm.lifetime.end.p0(i64 8, ptr %16) #7
  call void @llvm.lifetime.end.p0(i64 8, ptr %15) #7
  br label %137

83:                                               ; preds = %41
  call void @llvm.lifetime.start.p0(i64 8, ptr %19) #7
  call void @llvm.lifetime.start.p0(i64 8, ptr %20) #7
  call void @llvm.lifetime.start.p0(i64 1, ptr %21) #7
  %84 = load ptr, ptr %5, align 8, !tbaa !4
  %85 = call ptr @lean_ctor_get(ptr noundef %84, i32 noundef 1)
  store ptr %85, ptr %19, align 8, !tbaa !4
  %86 = load ptr, ptr %5, align 8, !tbaa !4
  %87 = call ptr @lean_ctor_get(ptr noundef %86, i32 noundef 2)
  store ptr %87, ptr %20, align 8, !tbaa !4
  %88 = load ptr, ptr %4, align 8, !tbaa !4
  %89 = load ptr, ptr %19, align 8, !tbaa !4
  %90 = call zeroext i8 @l_Lean_Expr_hasAnyFVar_visit___at_Lean_Elab_WF_checkCodomains___spec__3(ptr noundef %88, ptr noundef %89)
  store i8 %90, ptr %21, align 1, !tbaa !12
  %91 = load i8, ptr %21, align 1, !tbaa !12
  %92 = zext i8 %91 to i32
  %93 = icmp eq i32 %92, 0
  br i1 %93, label %94, label %96

94:                                               ; preds = %83
  %95 = load ptr, ptr %20, align 8, !tbaa !4
  store ptr %95, ptr %5, align 8, !tbaa !4
  store i32 2, ptr %8, align 4
  br label %98

96:                                               ; preds = %83
  call void @llvm.lifetime.start.p0(i64 1, ptr %22) #7
  store i8 1, ptr %22, align 1, !tbaa !12
  %97 = load i8, ptr %22, align 1, !tbaa !12
  store i8 %97, ptr %3, align 1
  store i32 1, ptr %8, align 4
  call void @llvm.lifetime.end.p0(i64 1, ptr %22) #7
  br label %98

98:                                               ; preds = %96, %94
  call void @llvm.lifetime.end.p0(i64 1, ptr %21) #7
  call void @llvm.lifetime.end.p0(i64 8, ptr %20) #7
  call void @llvm.lifetime.end.p0(i64 8, ptr %19) #7
  br label %137

99:                                               ; preds = %41
  call void @llvm.lifetime.start.p0(i64 8, ptr %23) #7
  call void @llvm.lifetime.start.p0(i64 8, ptr %24) #7
  call void @llvm.lifetime.start.p0(i64 8, ptr %25) #7
  call void @llvm.lifetime.start.p0(i64 1, ptr %26) #7
  %100 = load ptr, ptr %5, align 8, !tbaa !4
  %101 = call ptr @lean_ctor_get(ptr noundef %100, i32 noundef 1)
  store ptr %101, ptr %23, align 8, !tbaa !4
  %102 = load ptr, ptr %5, align 8, !tbaa !4
  %103 = call ptr @lean_ctor_get(ptr noundef %102, i32 noundef 2)
  store ptr %103, ptr %24, align 8, !tbaa !4
  %104 = load ptr, ptr %5, align 8, !tbaa !4
  %105 = call ptr @lean_ctor_get(ptr noundef %104, i32 noundef 3)
  store ptr %105, ptr %25, align 8, !tbaa !4
  %106 = load ptr, ptr %4, align 8, !tbaa !4
  %107 = load ptr, ptr %23, align 8, !tbaa !4
  %108 = call zeroext i8 @l_Lean_Expr_hasAnyFVar_visit___at_Lean_Elab_WF_checkCodomains___spec__3(ptr noundef %106, ptr noundef %107)
  store i8 %108, ptr %26, align 1, !tbaa !12
  %109 = load i8, ptr %26, align 1, !tbaa !12
  %110 = zext i8 %109 to i32
  %111 = icmp eq i32 %110, 0
  br i1 %111, label %112, label %124

112:                                              ; preds = %99
  call void @llvm.lifetime.start.p0(i64 1, ptr %27) #7
  %113 = load ptr, ptr %4, align 8, !tbaa !4
  %114 = load ptr, ptr %24, align 8, !tbaa !4
  %115 = call zeroext i8 @l_Lean_Expr_hasAnyFVar_visit___at_Lean_Elab_WF_checkCodomains___spec__3(ptr noundef %113, ptr noundef %114)
  store i8 %115, ptr %27, align 1, !tbaa !12
  %116 = load i8, ptr %27, align 1, !tbaa !12
  %117 = zext i8 %116 to i32
  %118 = icmp eq i32 %117, 0
  br i1 %118, label %119, label %121

119:                                              ; preds = %112
  %120 = load ptr, ptr %25, align 8, !tbaa !4
  store ptr %120, ptr %5, align 8, !tbaa !4
  store i32 2, ptr %8, align 4
  br label %123

121:                                              ; preds = %112
  call void @llvm.lifetime.start.p0(i64 1, ptr %28) #7
  store i8 1, ptr %28, align 1, !tbaa !12
  %122 = load i8, ptr %28, align 1, !tbaa !12
  store i8 %122, ptr %3, align 1
  store i32 1, ptr %8, align 4
  call void @llvm.lifetime.end.p0(i64 1, ptr %28) #7
  br label %123

123:                                              ; preds = %121, %119
  call void @llvm.lifetime.end.p0(i64 1, ptr %27) #7
  br label %126

124:                                              ; preds = %99
  call void @llvm.lifetime.start.p0(i64 1, ptr %29) #7
  store i8 1, ptr %29, align 1, !tbaa !12
  %125 = load i8, ptr %29, align 1, !tbaa !12
  store i8 %125, ptr %3, align 1
  store i32 1, ptr %8, align 4
  call void @llvm.lifetime.end.p0(i64 1, ptr %29) #7
  br label %126

126:                                              ; preds = %124, %123
  call void @llvm.lifetime.end.p0(i64 1, ptr %26) #7
  call void @llvm.lifetime.end.p0(i64 8, ptr %25) #7
  call void @llvm.lifetime.end.p0(i64 8, ptr %24) #7
  call void @llvm.lifetime.end.p0(i64 8, ptr %23) #7
  br label %137

127:                                              ; preds = %41
  call void @llvm.lifetime.start.p0(i64 8, ptr %30) #7
  %128 = load ptr, ptr %5, align 8, !tbaa !4
  %129 = call ptr @lean_ctor_get(ptr noundef %128, i32 noundef 1)
  store ptr %129, ptr %30, align 8, !tbaa !4
  %130 = load ptr, ptr %30, align 8, !tbaa !4
  store ptr %130, ptr %5, align 8, !tbaa !4
  store i32 2, ptr %8, align 4
  call void @llvm.lifetime.end.p0(i64 8, ptr %30) #7
  br label %137

131:                                              ; preds = %41
  call void @llvm.lifetime.start.p0(i64 8, ptr %31) #7
  %132 = load ptr, ptr %5, align 8, !tbaa !4
  %133 = call ptr @lean_ctor_get(ptr noundef %132, i32 noundef 2)
  store ptr %133, ptr %31, align 8, !tbaa !4
  %134 = load ptr, ptr %31, align 8, !tbaa !4
  store ptr %134, ptr %5, align 8, !tbaa !4
  store i32 2, ptr %8, align 4
  call void @llvm.lifetime.end.p0(i64 8, ptr %31) #7
  br label %137

135:                                              ; preds = %41
  call void @llvm.lifetime.start.p0(i64 1, ptr %32) #7
  store i8 0, ptr %32, align 1, !tbaa !12
  %136 = load i8, ptr %32, align 1, !tbaa !12
  store i8 %136, ptr %3, align 1
  store i32 1, ptr %8, align 4
  call void @llvm.lifetime.end.p0(i64 1, ptr %32) #7
  br label %137

137:                                              ; preds = %135, %131, %127, %126, %98, %82, %66, %44, %39
  call void @llvm.lifetime.end.p0(i64 1, ptr %6) #7
  %138 = load i32, ptr %8, align 4
  switch i32 %138, label %141 [
    i32 1, label %139
    i32 2, label %33
  ]

139:                                              ; preds = %137
  %140 = load i8, ptr %3, align 1
  ret i8 %140

141:                                              ; preds = %137
  unreachable
}